libcephfs.so.2 libcephfs2 #MINVER#
 _ZGVN23CachedStackStringStream5cacheE@Base 12.0.3
 _ZN11C_SaferCond6finishEi@Base 12.0.3
 _ZN11C_SaferCond8completeEi@Base 12.0.3
 _ZN11C_SaferCondD0Ev@Base 12.0.3
 _ZN11C_SaferCondD1Ev@Base 12.0.3
 _ZN11C_SaferCondD2Ev@Base 12.0.3
 _ZN11ConfigProxy13apply_changesEPSo@Base 12.0.3
 _ZN11ObserverMgrIN4ceph18md_config_obs_implI11ConfigProxyEEE15for_each_changeIS2_EEvRKSt3setINSt7__cxx1112basic_stringIcSt11char_traitsIcESaIcEEESt4lessISC_ESaISC_EERT_St8functionIFvPS3_RKSC_EEPSo@Base 12.0.3
 _ZN14StackStringBufILm4096EE6xsputnEPKcl@Base 12.0.3
 _ZN14StackStringBufILm4096EE8overflowEi@Base 12.0.3
 _ZN14StackStringBufILm4096EED0Ev@Base 12.0.3
 _ZN14StackStringBufILm4096EED1Ev@Base 12.0.3
 _ZN14StackStringBufILm4096EED2Ev@Base 12.0.3
 _ZN15ceph_mount_info4initEv@Base 12.0.3
 _ZN15ceph_mount_info8shutdownEv@Base 12.0.3
 _ZN17StackStringStreamILm4096EED0Ev@Base 12.0.3
 _ZN17StackStringStreamILm4096EED1Ev@Base 12.0.3
 _ZN23CachedStackStringStream5CacheD1Ev@Base 12.0.3
 _ZN23CachedStackStringStream5CacheD2Ev@Base 12.0.3
 _ZN23CachedStackStringStream5cacheE@Base 12.0.3
 _ZN23CachedStackStringStreamC1Ev@Base 12.0.3
 _ZN23CachedStackStringStreamC2Ev@Base 12.0.3
 _ZN23CachedStackStringStreamD1Ev@Base 12.0.3
 _ZN23CachedStackStringStreamD2Ev@Base 12.0.3
 _ZN4CondD0Ev@Base 12.0.3
 _ZN4CondD1Ev@Base 12.0.3
 _ZN4CondD2Ev@Base 12.0.3
 _ZN4ceph7logging12MutableEntryD0Ev@Base 12.0.3
 _ZN4ceph7logging12MutableEntryD1Ev@Base 12.0.3
 _ZN4ceph7logging12MutableEntryD2Ev@Base 12.0.3
 _ZN4ceph7logging5EntryC1Ess@Base 12.0.3
 _ZN4ceph7logging5EntryC2Ess@Base 12.0.3
 _ZN4ceph7logging9log_clock10coarse_nowEv@Base 12.0.3
 _ZN5boost6system12system_errorD0Ev@Base 12.0.3
 _ZN5boost6system12system_errorD1Ev@Base 12.0.3
 _ZN5boost6system12system_errorD2Ev@Base 12.0.3
 _ZN5boost6system14error_category12std_categoryD0Ev@Base 12.0.3
 _ZN5boost6system14error_category12std_categoryD1Ev@Base 12.0.3
 _ZN5boost6system14error_category12std_categoryD2Ev@Base 12.0.3
 _ZN7Context11sync_finishEi@Base 12.0.3
 _ZN7Context13sync_completeEi@Base 12.0.3
 _ZN9Messenger5startEv@Base 12.0.3
 _ZN9Messenger8shutdownEv@Base 12.0.3
 _ZNK4ceph7logging12MutableEntry4sizeEv@Base 12.0.3
 _ZNK4ceph7logging12MutableEntry4strvEv@Base 12.0.3
 _ZNK5boost6system12system_error4whatEv@Base 12.0.3
 _ZNK5boost6system14error_category10equivalentERKNS0_10error_codeEi@Base 12.0.3
 _ZNK5boost6system14error_category10equivalentEiRKNS0_15error_conditionE@Base 12.0.3
 _ZNK5boost6system14error_category12std_category10equivalentERKSt10error_codei@Base 12.0.3
 _ZNK5boost6system14error_category12std_category10equivalentEiRKSt15error_condition@Base 12.0.3
 _ZNK5boost6system14error_category12std_category23default_error_conditionEi@Base 12.0.3
 _ZNK5boost6system14error_category12std_category4nameEv@Base 12.0.3
 _ZNK5boost6system14error_category12std_category7messageB5cxx11Ei@Base 12.0.3
 _ZNK5boost6system14error_category23default_error_conditionEi@Base 12.0.3
 _ZNK5boost9container19vector_alloc_holderINS0_22small_vector_allocatorINS0_13new_allocatorIcEEEEmNS_11move_detail17integral_constantIjLj1EEEE13next_capacityINS0_16growth_factor_60EEEmm@Base 12.0.3
 _ZNSt14_Function_base13_Base_managerIZN11ConfigProxy15_gather_changesERSt3setINSt7__cxx1112basic_stringIcSt11char_traitsIcESaIcEEESt4lessIS8_ESaIS8_EEPSt3mapIPN4ceph18md_config_obs_implIS1_EESC_S9_ISI_ESaISt4pairIKSI_SC_EEEPSoEUlSI_RKS8_E_E10_M_managerERSt9_Any_dataRKSV_St18_Manager_operation@Base 12.0.3
 _ZNSt17_Function_handlerIFvPN4ceph18md_config_obs_implI11ConfigProxyEERKNSt7__cxx1112basic_stringIcSt11char_traitsIcESaIcEEEEZNS2_15_gather_changesERSt3setISA_St4lessISA_ESaISA_EEPSt3mapIS4_SI_SF_IS4_ESaISt4pairIKS4_SI_EEEPSoEUlS4_SC_E_E9_M_invokeERKSt9_Any_dataOS4_SC_@Base 12.0.3
 _ZNSt3mapIiiSt4lessIiESaISt4pairIKiiEEED1Ev@Base 12.0.3
 _ZNSt3mapIiiSt4lessIiESaISt4pairIKiiEEED2Ev@Base 12.0.3
 _ZNSt6vectorINSt7__cxx1112basic_stringIcSt11char_traitsIcESaIcEEESaIS5_EE17_M_realloc_insertIJS5_EEEvN9__gnu_cxx17__normal_iteratorIPS5_S7_EEDpOT_@Base 12.0.3
 _ZNSt6vectorISt10unique_ptrI17StackStringStreamILm4096EESt14default_deleteIS2_EESaIS5_EE12emplace_backIJS5_EEERS5_DpOT_@Base 12.0.3
 _ZNSt6vectorISt10unique_ptrI17StackStringStreamILm4096EESt14default_deleteIS2_EESaIS5_EE17_M_realloc_insertIJS5_EEEvN9__gnu_cxx17__normal_iteratorIPS5_S7_EEDpOT_@Base 12.0.3
 _ZNSt7__cxx1112basic_stringIcSt11char_traitsIcESaIcEE12_M_constructIPKcEEvT_S8_St20forward_iterator_tag@Base 12.0.3
 _ZNSt8_Rb_treeINSt7__cxx1112basic_stringIcSt11char_traitsIcESaIcEEES5_St9_IdentityIS5_ESt4lessIS5_ESaIS5_EE17_M_emplace_uniqueIJRKS5_EEESt4pairISt17_Rb_tree_iteratorIS5_EbEDpOT_@Base 12.0.3
 _ZNSt8_Rb_treeINSt7__cxx1112basic_stringIcSt11char_traitsIcESaIcEEES5_St9_IdentityIS5_ESt4lessIS5_ESaIS5_EE24_M_get_insert_unique_posERKS5_@Base 12.0.3
 _ZNSt8_Rb_treeINSt7__cxx1112basic_stringIcSt11char_traitsIcESaIcEEES5_St9_IdentityIS5_ESt4lessIS5_ESaIS5_EE8_M_eraseEPSt13_Rb_tree_nodeIS5_E@Base 12.0.3
 _ZNSt8_Rb_treeINSt7__cxx1112basic_stringIcSt11char_traitsIcESaIcEEESt4pairIKS5_PN4ceph18md_config_obs_implI11ConfigProxyEEESt10_Select1stISD_ESt4lessIS5_ESaISD_EE11equal_rangeERS7_@Base 12.0.3
 _ZNSt8_Rb_treeIPN4ceph18md_config_obs_implI11ConfigProxyEESt4pairIKS4_St3setINSt7__cxx1112basic_stringIcSt11char_traitsIcESaIcEEESt4lessISD_ESaISD_EEESt10_Select1stISI_ESE_IS4_ESaISI_EE17_M_emplace_uniqueIJRS4_SH_EEES5_ISt17_Rb_tree_iteratorISI_EbEDpOT_@Base 12.0.3
 _ZNSt8_Rb_treeIPN4ceph18md_config_obs_implI11ConfigProxyEESt4pairIKS4_St3setINSt7__cxx1112basic_stringIcSt11char_traitsIcESaIcEEESt4lessISD_ESaISD_EEESt10_Select1stISI_ESE_IS4_ESaISI_EE8_M_eraseEPSt13_Rb_tree_nodeISI_E@Base 12.0.3
 _ZNSt8_Rb_treeIiSt4pairIKiiESt10_Select1stIS2_ESt4lessIiESaIS2_EE24_M_get_insert_unique_posERS1_@Base 12.0.3
 _ZNSt8_Rb_treeIiSt4pairIKiiESt10_Select1stIS2_ESt4lessIiESaIS2_EE29_M_get_insert_hint_unique_posESt23_Rb_tree_const_iteratorIS2_ERS1_@Base 12.0.3
 _ZNSt8_Rb_treeIiSt4pairIKiiESt10_Select1stIS2_ESt4lessIiESaIS2_EE8_M_eraseEPSt13_Rb_tree_nodeIS2_E@Base 12.0.3
 _ZTI11C_SaferCond@Base 12.0.3
 _ZTI14StackStringBufILm4096EE@Base 12.0.3
 _ZTI17StackStringStreamILm4096EE@Base 12.0.3
 _ZTI4Cond@Base 12.0.3
 _ZTI7Context@Base 12.0.3
 _ZTIN4ceph7logging12MutableEntryE@Base 12.0.3
 _ZTIN4ceph7logging5EntryE@Base 12.0.3
 _ZTIN5boost6system12system_errorE@Base 12.0.3
 _ZTIN5boost6system14error_category12std_categoryE@Base 12.0.3
 _ZTIZN11ConfigProxy15_gather_changesERSt3setINSt7__cxx1112basic_stringIcSt11char_traitsIcESaIcEEESt4lessIS6_ESaIS6_EEPSt3mapIPN4ceph18md_config_obs_implIS_EESA_S7_ISG_ESaISt4pairIKSG_SA_EEEPSoEUlSG_RKS6_E_@Base 12.0.3
 _ZTS11C_SaferCond@Base 12.0.3
 _ZTS14StackStringBufILm4096EE@Base 12.0.3
 _ZTS17StackStringStreamILm4096EE@Base 12.0.3
 _ZTS4Cond@Base 12.0.3
 _ZTS7Context@Base 12.0.3
 _ZTSN4ceph7logging12MutableEntryE@Base 12.0.3
 _ZTSN4ceph7logging5EntryE@Base 12.0.3
 _ZTSN5boost6system12system_errorE@Base 12.0.3
 _ZTSN5boost6system14error_category12std_categoryE@Base 12.0.3
 _ZTSZN11ConfigProxy15_gather_changesERSt3setINSt7__cxx1112basic_stringIcSt11char_traitsIcESaIcEEESt4lessIS6_ESaIS6_EEPSt3mapIPN4ceph18md_config_obs_implIS_EESA_S7_ISG_ESaISt4pairIKSG_SA_EEEPSoEUlSG_RKS6_E_@Base 12.0.3
 _ZTT17StackStringStreamILm4096EE@Base 12.0.3
 _ZTV11C_SaferCond@Base 12.0.3
 _ZTV14StackStringBufILm4096EE@Base 12.0.3
 _ZTV17StackStringStreamILm4096EE@Base 12.0.3
 _ZTV4Cond@Base 12.0.3
 _ZTVN4ceph7logging12MutableEntryE@Base 12.0.3
 _ZTVN4ceph7logging5EntryE@Base 12.0.3
 _ZTVN5boost6system12system_errorE@Base 12.0.3
 _ZTVN5boost6system14error_category12std_categoryE@Base 12.0.3
 _ZTv0_n24_N17StackStringStreamILm4096EED0Ev@Base 12.0.3
 _ZTv0_n24_N17StackStringStreamILm4096EED1Ev@Base 12.0.3
 _ZZN11ConfigProxy15call_gate_enterEPN4ceph18md_config_obs_implIS_EEE15assert_data_ctx@Base 12.0.3
 _ZZN11ConfigProxy15call_gate_leaveEPN4ceph18md_config_obs_implIS_EEE15assert_data_ctx@Base 12.0.3
 _ZZN11ConfigProxy8CallGate5leaveEvE15assert_data_ctx@Base 12.0.3
 _ZZN4Cond4WaitER5MutexE15assert_data_ctx@Base 12.0.3
 _ZZN4Cond4WaitER5MutexE15assert_data_ctx_0@Base 12.0.3
 _ZZN4Cond6SignalEvE15assert_data_ctx@Base 12.0.3
 _ZZN4CondC4EvE15assert_data_ctx@Base 12.0.3
 _ZZN4ceph7logging5Entry5clockEvE5clock@Base 12.0.3
 _ZZN5Mutex10_post_lockEvE15assert_data_ctx@Base 12.0.3
 _ZZN5Mutex11_pre_unlockEvE15assert_data_ctx_0@Base 12.0.3
 _ZZN5Mutex11_pre_unlockEvE15assert_data_ctx_1@Base 12.0.3
 ceph_abort_conn@Base 14.2.0
 ceph_buffer_free@Base 12.0.3
 ceph_chdir@Base 12.0.3
 ceph_chmod@Base 12.0.3
 ceph_chown@Base 12.0.3
 ceph_close@Base 12.0.3
 ceph_closedir@Base 12.0.3
 ceph_conf_get@Base 12.0.3
 ceph_conf_parse_argv@Base 12.0.3
 ceph_conf_parse_env@Base 12.0.3
 ceph_conf_read_file@Base 12.0.3
 ceph_conf_set@Base 12.0.3
 ceph_create@Base 12.0.3
 ceph_create_from_rados@Base 12.0.3
 ceph_create_with_context@Base 12.0.3
 ceph_debug_get_fd_caps@Base 12.0.3
 ceph_debug_get_file_caps@Base 12.0.3
 ceph_fallocate@Base 12.0.3
 ceph_fchmod@Base 12.0.3
 ceph_fchown@Base 12.0.3
 ceph_fgetxattr@Base 12.0.3
 ceph_finish_reclaim@Base 14.2.0
 ceph_flistxattr@Base 12.0.3
 ceph_flock@Base 12.0.3
 ceph_fremovexattr@Base 12.0.3
 ceph_fsetattrx@Base 12.0.3
 ceph_fsetxattr@Base 12.0.3
 ceph_fstat@Base 14.2.0
 ceph_fstatx@Base 12.0.3
 ceph_fsync@Base 12.0.3
 ceph_ftruncate@Base 12.0.3
 ceph_futime@Base 14.2.0
 ceph_futimens@Base 14.2.0
 ceph_futimes@Base 14.2.0
 ceph_get_cap_return_timeout@Base 13.2.0
 ceph_get_default_data_pool_name@Base 12.1.4
 ceph_get_file_extent_osds@Base 12.0.3
 ceph_get_file_layout@Base 12.0.3
 ceph_get_file_object_size@Base 12.0.3
 ceph_get_file_pool@Base 12.0.3
 ceph_get_file_pool_name@Base 12.0.3
 ceph_get_file_replication@Base 12.0.3
 ceph_get_file_stripe_address@Base 12.0.3
 ceph_get_file_stripe_count@Base 12.0.3
 ceph_get_file_stripe_unit@Base 12.0.3
 ceph_get_fs_cid@Base 14.2.0
 ceph_get_instance_id@Base 14.2.0
 ceph_get_local_osd@Base 12.0.3
 ceph_get_mount_context@Base 12.0.3
 ceph_get_osd_addr@Base 12.0.3
 ceph_get_osd_crush_location@Base 12.0.3
 ceph_get_path_layout@Base 12.0.3
 ceph_get_path_object_size@Base 12.0.3
 ceph_get_path_pool@Base 12.0.3
 ceph_get_path_pool_name@Base 12.0.3
 ceph_get_path_replication@Base 12.0.3
 ceph_get_path_stripe_count@Base 12.0.3
 ceph_get_path_stripe_unit@Base 12.0.3
 ceph_get_pool_id@Base 12.0.3
 ceph_get_pool_name@Base 12.0.3
 ceph_get_pool_replication@Base 12.0.3
 ceph_get_stripe_unit_granularity@Base 12.0.3
 ceph_getcwd@Base 12.0.3
 ceph_getdents@Base 12.0.3
 ceph_getdnames@Base 12.0.3
 ceph_getxattr@Base 12.0.3
 ceph_init@Base 12.0.3
 ceph_is_mounted@Base 12.0.3
 ceph_lazyio@Base 14.2.0
 ceph_lazyio_propagate@Base 14.2.9-0ubuntu0.19.10.1
 ceph_lazyio_synchronize@Base 14.2.9-0ubuntu0.19.10.1
 ceph_lchown@Base 12.0.3
 ceph_lgetxattr@Base 12.0.3
 ceph_link@Base 12.0.3
 ceph_listxattr@Base 12.0.3
 ceph_ll_close@Base 12.0.3
 ceph_ll_commit_blocks@Base 12.0.3
 ceph_ll_create@Base 12.0.3
 ceph_ll_delegation@Base 13.2.0
 ceph_ll_fallocate@Base 14.2.0
 ceph_ll_file_layout@Base 12.0.3
 ceph_ll_forget@Base 12.0.3
 ceph_ll_fsync@Base 12.0.3
 ceph_ll_get_inode@Base 12.0.3
 ceph_ll_get_internal_offset@Base 12.0.3
 ceph_ll_get_stripe_osd@Base 12.0.3
 ceph_ll_getattr@Base 12.0.3
 ceph_ll_getlk@Base 12.0.3
 ceph_ll_getxattr@Base 12.0.3
 ceph_ll_lazyio@Base 14.2.0
 ceph_ll_link@Base 12.0.3
 ceph_ll_listxattr@Base 12.0.3
 ceph_ll_lookup@Base 12.0.3
 ceph_ll_lookup_inode@Base 12.0.3
 ceph_ll_lookup_root@Base 12.0.3
 ceph_ll_lseek@Base 12.0.3
 ceph_ll_mkdir@Base 12.0.3
 ceph_ll_mknod@Base 12.0.3
 ceph_ll_num_osds@Base 12.0.3
 ceph_ll_open@Base 12.0.3
 ceph_ll_opendir@Base 12.0.3
 ceph_ll_osdaddr@Base 12.0.3
 ceph_ll_put@Base 12.0.3
 ceph_ll_read@Base 12.0.3
 ceph_ll_read_block@Base 12.0.3
 ceph_ll_readlink@Base 12.0.3
 ceph_ll_readv@Base 12.0.3
 ceph_ll_releasedir@Base 12.0.3
 ceph_ll_removexattr@Base 12.0.3
 ceph_ll_rename@Base 12.0.3
 ceph_ll_rmdir@Base 12.0.3
 ceph_ll_setattr@Base 12.0.3
 ceph_ll_setlk@Base 12.0.3
 ceph_ll_setxattr@Base 12.0.3
 ceph_ll_snap_seq@Base 12.0.3
 ceph_ll_statfs@Base 12.0.3
 ceph_ll_stripe_unit@Base 12.0.3
 ceph_ll_symlink@Base 12.0.3
 ceph_ll_sync_inode@Base 13.2.0
 ceph_ll_unlink@Base 12.0.3
 ceph_ll_walk@Base 12.0.3
 ceph_ll_write@Base 12.0.3
 ceph_ll_write_block@Base 12.0.3
 ceph_ll_writev@Base 12.0.3
 ceph_llistxattr@Base 12.0.3
 ceph_localize_reads@Base 12.0.3
 ceph_lremovexattr@Base 12.0.3
 ceph_lseek@Base 12.0.3
 ceph_lsetxattr@Base 12.0.3
 ceph_lstat@Base 14.2.0
 ceph_lutimes@Base 14.2.0
 ceph_mds_command@Base 12.0.3
 ceph_mkdir@Base 12.0.3
 ceph_mkdirs@Base 12.0.3
 ceph_mknod@Base 12.0.3
 ceph_mount@Base 12.0.3
 ceph_mount_perms@Base 12.0.3
 ceph_mount_perms_set@Base 13.2.0
 ceph_open@Base 12.0.3
 ceph_open_layout@Base 12.0.3
 ceph_opendir@Base 12.0.3
 ceph_preadv@Base 12.0.3
 ceph_pwritev@Base 12.0.3
 ceph_read@Base 12.0.3
 ceph_readdir@Base 12.0.3
 ceph_readdir_r@Base 12.0.3
 ceph_readdirplus_r@Base 12.0.3
 ceph_readlink@Base 12.0.3
 ceph_release@Base 12.0.3
 ceph_removexattr@Base 12.0.3
 ceph_rename@Base 12.0.3
 ceph_rewinddir@Base 12.0.3
 ceph_rmdir@Base 12.0.3
 ceph_seekdir@Base 12.0.3
 ceph_select_filesystem@Base 14.2.0
 ceph_set_default_file_replication@Base 12.0.3
 ceph_set_default_file_stripe_count@Base 12.0.3
 ceph_set_default_file_stripe_unit@Base 12.0.3
 ceph_set_default_object_size@Base 12.0.3
 ceph_set_default_preferred_pg@Base 12.0.3
 ceph_set_deleg_timeout@Base 13.2.0
 ceph_set_session_timeout@Base 14.2.0
 ceph_set_uuid@Base 14.2.0
 ceph_setattrx@Base 12.0.3
 ceph_setxattr@Base 12.0.3
 ceph_shutdown@Base 12.0.3
 ceph_start_reclaim@Base 14.2.0
 ceph_stat@Base 14.2.0
 ceph_statfs@Base 12.0.3
 ceph_statx@Base 12.0.3
 ceph_symlink@Base 12.0.3
 ceph_sync_fs@Base 12.0.3
 ceph_telldir@Base 12.0.3
 ceph_truncate@Base 12.0.3
 ceph_umask@Base 14.2.0
 ceph_unlink@Base 12.0.3
 ceph_unmount@Base 12.0.3
 ceph_userperm_destroy@Base 12.0.3
 ceph_userperm_new@Base 12.0.3
 ceph_utime@Base 12.0.3
 ceph_utimes@Base 14.2.0
 ceph_version@Base 12.0.3
 ceph_write@Base 12.0.3
